target datalayout = "e-m:e-p270:32:32-p271:32:32-p272:64:64-i64:64-i128:128-f80:128-n8:16:32:64-S128"
target triple = "x86_64-pc-linux-gnu"

%struct.LZ4F_CustomMem = type { ptr, ptr, ptr, ptr }
%struct.LZ4F_preferences_t = type { %struct.LZ4F_frameInfo_t, i32, i32, i32, [3 x i32] }
%struct.LZ4F_frameInfo_t = type { i32, i32, i32, i32, i64, i32, i32 }
%struct.LZ4F_cctx_s = type { %struct.LZ4F_CustomMem, %struct.LZ4F_preferences_t, i32, i32, ptr, i64, i64, ptr, ptr, i64, i64, %struct.XXH32_state_s, ptr, i16, i16, i32 }
%struct.XXH32_state_s = type { i32, i32, i32, i32, i32, i32, [4 x i32], i32, i32 }

; Function Attrs: nounwind uwtable
define internal void @LZ4F_free(ptr noundef %0, ptr noundef byval(%struct.LZ4F_CustomMem) align 8 %1) #0 {
  %3 = alloca ptr, align 8
  store ptr %0, ptr %3, align 8, !tbaa !12
  %4 = load ptr, ptr %3, align 8, !tbaa !12
  %5 = icmp eq ptr %4, null
  br i1 %5, label %6, label %7

6:                                                ; preds = %2
  br label %19

7:                                                ; preds = %2
  %8 = getelementptr inbounds nuw %struct.LZ4F_CustomMem, ptr %1, i32 0, i32 2
  %9 = load ptr, ptr %8, align 8, !tbaa !47
  %10 = icmp ne ptr %9, null
  br i1 %10, label %11, label %17

11:                                               ; preds = %7
  %12 = getelementptr inbounds nuw %struct.LZ4F_CustomMem, ptr %1, i32 0, i32 2
  %13 = load ptr, ptr %12, align 8, !tbaa !47
  %14 = getelementptr inbounds nuw %struct.LZ4F_CustomMem, ptr %1, i32 0, i32 3
  %15 = load ptr, ptr %14, align 8, !tbaa !48
  %16 = load ptr, ptr %3, align 8, !tbaa !12
  call void %13(ptr noundef %15, ptr noundef %16)
  br label %19

17:                                               ; preds = %7
  %18 = load ptr, ptr %3, align 8, !tbaa !12
  call void @free(ptr noundef %18) #8
  br label %19

19:                                               ; preds = %17, %11, %6
  ret void
}

; Function Attrs: nounwind uwtable
define i64 @LZ4F_freeCompressionContext(ptr noundef %0) #0 {
  %2 = alloca ptr, align 8
  store ptr %0, ptr %2, align 8, !tbaa !23
  %3 = load ptr, ptr %2, align 8, !tbaa !23
  %4 = icmp ne ptr %3, null
  br i1 %4, label %5, label %19

5:                                                ; preds = %1
  %6 = load ptr, ptr %2, align 8, !tbaa !23
  %7 = getelementptr inbounds nuw %struct.LZ4F_cctx_s, ptr %6, i32 0, i32 12
  %8 = load ptr, ptr %7, align 8, !tbaa !44
  %9 = load ptr, ptr %2, align 8, !tbaa !23
  %10 = getelementptr inbounds nuw %struct.LZ4F_cctx_s, ptr %9, i32 0, i32 0
  call void @LZ4F_free(ptr noundef %8, ptr noundef byval(%struct.LZ4F_CustomMem) align 8 %10)
  %11 = load ptr, ptr %2, align 8, !tbaa !23
  %12 = getelementptr inbounds nuw %struct.LZ4F_cctx_s, ptr %11, i32 0, i32 7
  %13 = load ptr, ptr %12, align 8, !tbaa !60
  %14 = load ptr, ptr %2, align 8, !tbaa !23
  %15 = getelementptr inbounds nuw %struct.LZ4F_cctx_s, ptr %14, i32 0, i32 0
  call void @LZ4F_free(ptr noundef %13, ptr noundef byval(%struct.LZ4F_CustomMem) align 8 %15)
  %16 = load ptr, ptr %2, align 8, !tbaa !23
  %17 = load ptr, ptr %2, align 8, !tbaa !23
  %18 = getelementptr inbounds nuw %struct.LZ4F_cctx_s, ptr %17, i32 0, i32 0
  call void @LZ4F_free(ptr noundef %16, ptr noundef byval(%struct.LZ4F_CustomMem) align 8 %18)
  br label %19

19:                                               ; preds = %5, %1
  ret i64 0
}