; Function Attrs: nounwind uwtable
define noundef i64 @LZ4F_freeCompressionContext(ptr noundef %0) local_unnamed_addr #5 {
  %.not = icmp eq ptr %0, null
  br i1 %.not, label %LZ4F_free.exit15, label %2

2:                                                ; preds = %1
  %3 = getelementptr inbounds nuw i8, ptr %0, i64 200
  %4 = load ptr, ptr %3, align 8, !tbaa !38
  %5 = getelementptr i8, ptr %0, i64 16
  %.val10 = load ptr, ptr %5, align 8
  %6 = getelementptr i8, ptr %0, i64 24
  %.val11 = load ptr, ptr %6, align 8
  %7 = icmp eq ptr %4, null
  br i1 %7, label %LZ4F_free.exit, label %8

8:                                                ; preds = %2
  %.not.i = icmp eq ptr %.val10, null
  br i1 %.not.i, label %10, label %9

9:                                                ; preds = %8
  tail call void %.val10(ptr noundef %.val11, ptr noundef nonnull %4) #13
  br label %LZ4F_free.exitthread-pre-split

10:                                               ; preds = %8
  tail call void @free(ptr noundef nonnull %4) #13
  br label %LZ4F_free.exitthread-pre-split

LZ4F_free.exitthread-pre-split:                   ; preds = %10, %9
  %.val8.pr = load ptr, ptr %5, align 8
  %.val9.pre = load ptr, ptr %6, align 8
  br label %LZ4F_free.exit

LZ4F_free.exit:                                   ; preds = %LZ4F_free.exitthread-pre-split, %2
  %.val9 = phi ptr [ %.val9.pre, %LZ4F_free.exitthread-pre-split ], [ %.val11, %2 ]
  %.val8 = phi ptr [ %.val8.pr, %LZ4F_free.exitthread-pre-split ], [ %.val10, %2 ]
  %11 = getelementptr inbounds nuw i8, ptr %0, i64 120
  %12 = load ptr, ptr %11, align 8, !tbaa !52
  %13 = icmp eq ptr %12, null
  br i1 %13, label %17, label %14

14:                                               ; preds = %LZ4F_free.exit
  %.not.i12 = icmp eq ptr %.val8, null
  br i1 %.not.i12, label %16, label %15

15:                                               ; preds = %14
  tail call void %.val8(ptr noundef %.val9, ptr noundef nonnull %12) #13
  br label %17

16:                                               ; preds = %14
  tail call void @free(ptr noundef nonnull %12) #13
  br label %17

17:                                               ; preds = %16, %15, %LZ4F_free.exit
  %.val = load ptr, ptr %5, align 8
  %.not.i14 = icmp eq ptr %.val, null
  br i1 %.not.i14, label %19, label %18

18:                                               ; preds = %17
  %.val7 = load ptr, ptr %6, align 8
  tail call void %.val(ptr noundef %.val7, ptr noundef nonnull %0) #13
  br label %LZ4F_free.exit15

19:                                               ; preds = %17
  tail call void @free(ptr noundef nonnull %0) #13
  br label %LZ4F_free.exit15

LZ4F_free.exit15:                                 ; preds = %19, %18, %1
  ret i64 0
}